target datalayout = "e-m:e-p270:32:32-p271:32:32-p272:64:64-i64:64-i128:128-f80:128-n8:16:32:64-S128"
target triple = "x86_64-pc-linux-gnu"

%"class.gmx::BasicVector.22" = type { [3 x float] }
%struct.t_pbc = type { i32, i32, i32, i32, [3 x [3 x float]], [3 x float], [3 x float], [3 x float], float, i32, [12 x [3 x i32]], [12 x [3 x float]] }
%"class.gmx::ArrayRef.91" = type { %"struct.gmx::ArrayRefIter.92", %"struct.gmx::ArrayRefIter.92" }
%"struct.gmx::ArrayRefIter.92" = type { ptr }
%"class.gmx::ArrayRef.88" = type { %"struct.gmx::ArrayRefIter.89", %"struct.gmx::ArrayRefIter.89" }
%"struct.gmx::ArrayRefIter.89" = type { ptr }
%"class.std::optional" = type { %"struct.std::_Optional_base" }
%"struct.std::_Optional_base" = type { %"struct.std::_Optional_payload" }
%"struct.std::_Optional_payload" = type { %"struct.std::_Optional_payload_base.base", [7 x i8] }
%"struct.std::_Optional_payload_base.base" = type <{ %"union.std::_Optional_payload_base<gmx::ArrayRef<double>>::_Storage", i8 }>
%"union.std::_Optional_payload_base<gmx::ArrayRef<double>>::_Storage" = type { %"class.gmx::ArrayRef.386" }
%"class.gmx::ArrayRef.386" = type { %"struct.gmx::ArrayRefIter.387", %"struct.gmx::ArrayRefIter.387" }
%"struct.gmx::ArrayRefIter.387" = type { ptr }

; Function Attrs: mustprogress nounwind uwtable
define linkonce_odr noundef i64 @_ZNK3gmx12ArrayRefIterIKNS_11BasicVectorIfEEEmiES4_(ptr noundef nonnull align 8 dereferenceable(8) %0, ptr %1) #5 comdat align 2 {
  %3 = alloca %"struct.gmx::ArrayRefIter.92", align 8
  %4 = alloca ptr, align 8
  %5 = getelementptr inbounds nuw %"struct.gmx::ArrayRefIter.92", ptr %3, i32 0, i32 0
  store ptr %1, ptr %5, align 8
  store ptr %0, ptr %4, align 8, !tbaa !394
  %6 = load ptr, ptr %4, align 8
  %7 = getelementptr inbounds nuw %"struct.gmx::ArrayRefIter.92", ptr %6, i32 0, i32 0
  %8 = load ptr, ptr %7, align 8, !tbaa !396
  %9 = getelementptr inbounds nuw %"struct.gmx::ArrayRefIter.92", ptr %3, i32 0, i32 0
  %10 = load ptr, ptr %9, align 8, !tbaa !396
  %11 = ptrtoint ptr %8 to i64
  %12 = ptrtoint ptr %10 to i64
  %13 = sub i64 %11, %12
  %14 = sdiv exact i64 %13, 12
  ret i64 %14
}

; Function Attrs: mustprogress nounwind uwtable
define linkonce_odr noundef ptr @_ZNK3gmx12ArrayRefIterIKNS_11BasicVectorIfEEE4dataEv(ptr noundef nonnull align 8 dereferenceable(8) %0) #5 comdat align 2 {
  %2 = alloca ptr, align 8
  store ptr %0, ptr %2, align 8, !tbaa !394
  %3 = load ptr, ptr %2, align 8
  %4 = getelementptr inbounds nuw %"struct.gmx::ArrayRefIter.92", ptr %3, i32 0, i32 0
  %5 = load ptr, ptr %4, align 8, !tbaa !396
  ret ptr %5
}

; Function Attrs: mustprogress nounwind uwtable
define linkonce_odr noundef i64 @_ZNK3gmx12ArrayRefIterIKfEmiES2_(ptr noundef nonnull align 8 dereferenceable(8) %0, ptr %1) #5 comdat align 2 {
  %3 = alloca %"struct.gmx::ArrayRefIter.89", align 8
  %4 = alloca ptr, align 8
  %5 = getelementptr inbounds nuw %"struct.gmx::ArrayRefIter.89", ptr %3, i32 0, i32 0
  store ptr %1, ptr %5, align 8
  store ptr %0, ptr %4, align 8, !tbaa !390
  %6 = load ptr, ptr %4, align 8
  %7 = getelementptr inbounds nuw %"struct.gmx::ArrayRefIter.89", ptr %6, i32 0, i32 0
  %8 = load ptr, ptr %7, align 8, !tbaa !392
  %9 = getelementptr inbounds nuw %"struct.gmx::ArrayRefIter.89", ptr %3, i32 0, i32 0
  %10 = load ptr, ptr %9, align 8, !tbaa !392
  %11 = ptrtoint ptr %8 to i64
  %12 = ptrtoint ptr %10 to i64
  %13 = sub i64 %11, %12
  %14 = sdiv exact i64 %13, 4
  ret i64 %14
}

; Function Attrs: mustprogress nounwind uwtable
define linkonce_odr noundef ptr @_ZNK3gmx12ArrayRefIterIKfE4dataEv(ptr noundef nonnull align 8 dereferenceable(8) %0) #5 comdat align 2 {
  %2 = alloca ptr, align 8
  store ptr %0, ptr %2, align 8, !tbaa !390
  %3 = load ptr, ptr %2, align 8
  %4 = getelementptr inbounds nuw %"struct.gmx::ArrayRefIter.89", ptr %3, i32 0, i32 0
  %5 = load ptr, ptr %4, align 8, !tbaa !392
  ret ptr %5
}

; Function Attrs: mustprogress nounwind uwtable
define linkonce_odr noundef i64 @_ZNK3gmx8ArrayRefIKNS_11BasicVectorIfEEE4sizeEv(ptr noundef nonnull align 8 dereferenceable(16) %0) #5 comdat align 2 {
  %2 = alloca ptr, align 8
  %3 = alloca %"struct.gmx::ArrayRefIter.92", align 8
  store ptr %0, ptr %2, align 8, !tbaa !382
  %4 = load ptr, ptr %2, align 8
  %5 = getelementptr inbounds nuw %"class.gmx::ArrayRef.91", ptr %4, i32 0, i32 1
  %6 = getelementptr inbounds nuw %"class.gmx::ArrayRef.91", ptr %4, i32 0, i32 0
  call void @llvm.memcpy.p0.p0.i64(ptr align 8 %3, ptr align 8 %6, i64 8, i1 false)
  %7 = getelementptr inbounds nuw %"struct.gmx::ArrayRefIter.92", ptr %3, i32 0, i32 0
  %8 = load ptr, ptr %7, align 8
  %9 = call noundef i64 @_ZNK3gmx12ArrayRefIterIKNS_11BasicVectorIfEEEmiES4_(ptr noundef nonnull align 8 dereferenceable(8) %5, ptr %8) #3
  ret i64 %9
}

; Function Attrs: mustprogress nounwind uwtable
define linkonce_odr void @_ZN3gmx12ArrayRefIterIKNS_11BasicVectorIfEEEC2EPS3_(ptr noundef nonnull align 8 dereferenceable(8) %0, ptr noundef %1) unnamed_addr #5 comdat align 2 {
  %3 = alloca ptr, align 8
  %4 = alloca ptr, align 8
  store ptr %0, ptr %3, align 8, !tbaa !394
  store ptr %1, ptr %4, align 8, !tbaa !268
  %5 = load ptr, ptr %3, align 8
  %6 = getelementptr inbounds nuw %"struct.gmx::ArrayRefIter.92", ptr %5, i32 0, i32 0
  %7 = load ptr, ptr %4, align 8, !tbaa !268
  store ptr %7, ptr %6, align 8, !tbaa !396
  ret void
}

; Function Attrs: mustprogress nounwind uwtable
define linkonce_odr noundef ptr @_ZNK3gmx8ArrayRefIKNS_11BasicVectorIfEEE4dataEv(ptr noundef nonnull align 8 dereferenceable(16) %0) #5 comdat align 2 {
  %2 = alloca ptr, align 8
  store ptr %0, ptr %2, align 8, !tbaa !382
  %3 = load ptr, ptr %2, align 8
  %4 = getelementptr inbounds nuw %"class.gmx::ArrayRef.91", ptr %3, i32 0, i32 0
  %5 = call noundef ptr @_ZNK3gmx12ArrayRefIterIKNS_11BasicVectorIfEEE4dataEv(ptr noundef nonnull align 8 dereferenceable(8) %4) #3
  ret ptr %5
}

; Function Attrs: mustprogress nounwind uwtable
define linkonce_odr noundef i64 @_ZNK3gmx8ArrayRefIKfE4sizeEv(ptr noundef nonnull align 8 dereferenceable(16) %0) #5 comdat align 2 {
  %2 = alloca ptr, align 8
  %3 = alloca %"struct.gmx::ArrayRefIter.89", align 8
  store ptr %0, ptr %2, align 8, !tbaa !380
  %4 = load ptr, ptr %2, align 8
  %5 = getelementptr inbounds nuw %"class.gmx::ArrayRef.88", ptr %4, i32 0, i32 1
  %6 = getelementptr inbounds nuw %"class.gmx::ArrayRef.88", ptr %4, i32 0, i32 0
  call void @llvm.memcpy.p0.p0.i64(ptr align 8 %3, ptr align 8 %6, i64 8, i1 false)
  %7 = getelementptr inbounds nuw %"struct.gmx::ArrayRefIter.89", ptr %3, i32 0, i32 0
  %8 = load ptr, ptr %7, align 8
  %9 = call noundef i64 @_ZNK3gmx12ArrayRefIterIKfEmiES2_(ptr noundef nonnull align 8 dereferenceable(8) %5, ptr %8) #3
  ret i64 %9
}

; Function Attrs: mustprogress nounwind uwtable
define linkonce_odr void @_ZN3gmx12ArrayRefIterIKfEC2EPS1_(ptr noundef nonnull align 8 dereferenceable(8) %0, ptr noundef %1) unnamed_addr #5 comdat align 2 {
  %3 = alloca ptr, align 8
  %4 = alloca ptr, align 8
  store ptr %0, ptr %3, align 8, !tbaa !390
  store ptr %1, ptr %4, align 8, !tbaa !134
  %5 = load ptr, ptr %3, align 8
  %6 = getelementptr inbounds nuw %"struct.gmx::ArrayRefIter.89", ptr %5, i32 0, i32 0
  %7 = load ptr, ptr %4, align 8, !tbaa !134
  store ptr %7, ptr %6, align 8, !tbaa !392
  ret void
}

; Function Attrs: mustprogress nounwind uwtable
define linkonce_odr noundef ptr @_ZNK3gmx8ArrayRefIKfE4dataEv(ptr noundef nonnull align 8 dereferenceable(16) %0) #5 comdat align 2 {
  %2 = alloca ptr, align 8
  store ptr %0, ptr %2, align 8, !tbaa !380
  %3 = load ptr, ptr %2, align 8
  %4 = getelementptr inbounds nuw %"class.gmx::ArrayRef.88", ptr %3, i32 0, i32 0
  %5 = call noundef ptr @_ZNK3gmx12ArrayRefIterIKfE4dataEv(ptr noundef nonnull align 8 dereferenceable(8) %4) #3
  ret ptr %5
}

; Function Attrs: mustprogress uwtable
define linkonce_odr void @_ZN3gmx8ArrayRefIKNS_11BasicVectorIfEEEC2IRS4_vEEOT_(ptr noundef nonnull align 8 dereferenceable(16) %0, ptr noundef nonnull align 8 dereferenceable(16) %1) unnamed_addr #6 comdat align 2 {
  %3 = alloca ptr, align 8
  %4 = alloca ptr, align 8
  store ptr %0, ptr %3, align 8, !tbaa !382
  store ptr %1, ptr %4, align 8, !tbaa !382
  %5 = load ptr, ptr %3, align 8
  %6 = getelementptr inbounds nuw %"class.gmx::ArrayRef.91", ptr %5, i32 0, i32 0
  %7 = load ptr, ptr %4, align 8, !tbaa !382
  %8 = call noundef ptr @_ZNK3gmx8ArrayRefIKNS_11BasicVectorIfEEE4dataEv(ptr noundef nonnull align 8 dereferenceable(16) %7)
  call void @_ZN3gmx12ArrayRefIterIKNS_11BasicVectorIfEEEC2EPS3_(ptr noundef nonnull align 8 dereferenceable(8) %6, ptr noundef %8) #3
  %9 = getelementptr inbounds nuw %"class.gmx::ArrayRef.91", ptr %5, i32 0, i32 1
  %10 = load ptr, ptr %4, align 8, !tbaa !382
  %11 = call noundef ptr @_ZNK3gmx8ArrayRefIKNS_11BasicVectorIfEEE4dataEv(ptr noundef nonnull align 8 dereferenceable(16) %10)
  %12 = load ptr, ptr %4, align 8, !tbaa !382
  %13 = call noundef i64 @_ZNK3gmx8ArrayRefIKNS_11BasicVectorIfEEE4sizeEv(ptr noundef nonnull align 8 dereferenceable(16) %12)
  %14 = getelementptr inbounds nuw %"class.gmx::BasicVector.22", ptr %11, i64 %13
  call void @_ZN3gmx12ArrayRefIterIKNS_11BasicVectorIfEEEC2EPS3_(ptr noundef nonnull align 8 dereferenceable(8) %9, ptr noundef %14) #3
  ret void
}

; Function Attrs: mustprogress uwtable
define linkonce_odr void @_ZN3gmx8ArrayRefIKfEC2IRS2_vEEOT_(ptr noundef nonnull align 8 dereferenceable(16) %0, ptr noundef nonnull align 8 dereferenceable(16) %1) unnamed_addr #6 comdat align 2 {
  %3 = alloca ptr, align 8
  %4 = alloca ptr, align 8
  store ptr %0, ptr %3, align 8, !tbaa !380
  store ptr %1, ptr %4, align 8, !tbaa !380
  %5 = load ptr, ptr %3, align 8
  %6 = getelementptr inbounds nuw %"class.gmx::ArrayRef.88", ptr %5, i32 0, i32 0
  %7 = load ptr, ptr %4, align 8, !tbaa !380
  %8 = call noundef ptr @_ZNK3gmx8ArrayRefIKfE4dataEv(ptr noundef nonnull align 8 dereferenceable(16) %7)
  call void @_ZN3gmx12ArrayRefIterIKfEC2EPS1_(ptr noundef nonnull align 8 dereferenceable(8) %6, ptr noundef %8) #3
  %9 = getelementptr inbounds nuw %"class.gmx::ArrayRef.88", ptr %5, i32 0, i32 1
  %10 = load ptr, ptr %4, align 8, !tbaa !380
  %11 = call noundef ptr @_ZNK3gmx8ArrayRefIKfE4dataEv(ptr noundef nonnull align 8 dereferenceable(16) %10)
  %12 = load ptr, ptr %4, align 8, !tbaa !380
  %13 = call noundef i64 @_ZNK3gmx8ArrayRefIKfE4sizeEv(ptr noundef nonnull align 8 dereferenceable(16) %12)
  %14 = getelementptr inbounds nuw float, ptr %11, i64 %13
  call void @_ZN3gmx12ArrayRefIterIKfEC2EPS1_(ptr noundef nonnull align 8 dereferenceable(8) %9, ptr noundef %14) #3
  ret void
}

; Function Attrs: mustprogress uwtable
define void @_Z35preparePrevStepPullComNewSimulationPK9t_commrecP6pull_tN3gmx8ArrayRefIKfEENS5_IKNS4_11BasicVectorIfEEEEPA3_S6_7PbcTypeOSt8optionalINS5_IdEEE(ptr noundef %0, ptr noundef %1, ptr %2, ptr %3, ptr %4, ptr %5, ptr noundef %6, i32 noundef %7, ptr noundef nonnull align 8 dereferenceable(24) %8) #6 {
  %10 = alloca %"class.gmx::ArrayRef.88", align 8
  %11 = alloca %"class.gmx::ArrayRef.91", align 8
  %12 = alloca ptr, align 8
  %13 = alloca ptr, align 8
  %14 = alloca ptr, align 8
  %15 = alloca i32, align 4
  %16 = alloca ptr, align 8
  %17 = alloca %struct.t_pbc, align 4
  %18 = alloca %"class.gmx::ArrayRef.88", align 8
  %19 = alloca %"class.gmx::ArrayRef.91", align 8
  %20 = alloca %"class.std::optional", align 8
  %21 = getelementptr inbounds nuw { ptr, ptr }, ptr %10, i32 0, i32 0
  store ptr %2, ptr %21, align 8
  %22 = getelementptr inbounds nuw { ptr, ptr }, ptr %10, i32 0, i32 1
  store ptr %3, ptr %22, align 8
  %23 = getelementptr inbounds nuw { ptr, ptr }, ptr %11, i32 0, i32 0
  store ptr %4, ptr %23, align 8
  %24 = getelementptr inbounds nuw { ptr, ptr }, ptr %11, i32 0, i32 1
  store ptr %5, ptr %24, align 8
  store ptr %0, ptr %12, align 8, !tbaa !359
  store ptr %1, ptr %13, align 8, !tbaa !214
  store ptr %6, ptr %14, align 8, !tbaa !134
  store i32 %7, ptr %15, align 4, !tbaa !970
  store ptr %8, ptr %16, align 8, !tbaa !971
  call void @llvm.lifetime.start.p0(i64 384, ptr %17) #3
  %25 = load i32, ptr %15, align 4, !tbaa !970
  %26 = load ptr, ptr %14, align 8, !tbaa !134
  call void @_Z7set_pbcP5t_pbc7PbcTypePA3_Kf(ptr noundef %17, i32 noundef %25, ptr noundef %26)
  %27 = load ptr, ptr %12, align 8, !tbaa !359
  %28 = load ptr, ptr %13, align 8, !tbaa !214
  call void @_ZN3gmx8ArrayRefIKfEC2IRS2_vEEOT_(ptr noundef nonnull align 8 dereferenceable(16) %18, ptr noundef nonnull align 8 dereferenceable(16) %10)
  call void @_ZN3gmx8ArrayRefIKNS_11BasicVectorIfEEEC2IRS4_vEEOT_(ptr noundef nonnull align 8 dereferenceable(16) %19, ptr noundef nonnull align 8 dereferenceable(16) %11)
  %29 = getelementptr inbounds nuw { ptr, ptr }, ptr %18, i32 0, i32 0
  %30 = load ptr, ptr %29, align 8
  %31 = getelementptr inbounds nuw { ptr, ptr }, ptr %18, i32 0, i32 1
  %32 = load ptr, ptr %31, align 8
  call void @_Z23initPullComFromPrevStepPK9t_commrecP6pull_tN3gmx8ArrayRefIKfEERK5t_pbcNS5_IKNS4_11BasicVectorIfEEEE(ptr noundef %27, ptr noundef %28, ptr %30, ptr %32, ptr noundef nonnull align 4 dereferenceable(384) %17, ptr noundef byval(%"class.gmx::ArrayRef.91") align 8 %19)
  %33 = load ptr, ptr %13, align 8, !tbaa !214
  %34 = load ptr, ptr %16, align 8, !tbaa !971
  call void @llvm.memcpy.p0.p0.i64(ptr align 8 %20, ptr align 8 %34, i64 24, i1 false)
  call void @_Z21updatePrevStepPullComP6pull_tSt8optionalIN3gmx8ArrayRefIdEEE(ptr noundef %33, ptr noundef byval(%"class.std::optional") align 8 %20)
  call void @llvm.lifetime.end.p0(i64 384, ptr %17) #3
  ret void
}