; Function Attrs: mustprogress uwtable
define void @_Z35preparePrevStepPullComNewSimulationPK9t_commrecP6pull_tN3gmx8ArrayRefIKfEENS5_IKNS4_11BasicVectorIfEEEEPA3_S6_7PbcTypeOSt8optionalINS5_IdEEE(ptr noundef %0, ptr noundef %1, ptr %2, ptr %3, ptr %4, ptr %5, ptr noundef %6, i32 noundef %7, ptr noundef nonnull readonly align 8 captures(none) dereferenceable(24) %8) local_unnamed_addr #4 {
  %10 = alloca %struct.t_pbc, align 4
  %11 = alloca %"class.gmx::ArrayRef.91", align 8
  call void @llvm.lifetime.start.p0(i64 384, ptr nonnull %10) #21
  call void @_Z7set_pbcP5t_pbc7PbcTypePA3_Kf(ptr noundef nonnull %10, i32 noundef %7, ptr noundef %6)
  %12 = ptrtoint ptr %3 to i64
  %13 = ptrtoint ptr %2 to i64
  %14 = sub i64 %12, %13
  %15 = getelementptr inbounds nuw i8, ptr %2, i64 %14
  store ptr %4, ptr %11, align 8, !tbaa !183
  %16 = getelementptr inbounds nuw i8, ptr %11, i64 8
  %17 = ptrtoint ptr %5 to i64
  %18 = ptrtoint ptr %4 to i64
  %19 = sub i64 %17, %18
  %20 = getelementptr inbounds nuw i8, ptr %4, i64 %19
  store ptr %20, ptr %16, align 8, !tbaa !183
  call void @_Z23initPullComFromPrevStepPK9t_commrecP6pull_tN3gmx8ArrayRefIKfEERK5t_pbcNS5_IKNS4_11BasicVectorIfEEEE(ptr noundef %0, ptr noundef %1, ptr %2, ptr %15, ptr noundef nonnull align 4 dereferenceable(384) %10, ptr noundef nonnull byval(%"class.gmx::ArrayRef.91") align 8 %11)
  call void @_Z21updatePrevStepPullComP6pull_tSt8optionalIN3gmx8ArrayRefIdEEE(ptr noundef %1, ptr noundef nonnull byval(%"class.std::optional") align 8 %8)
  call void @llvm.lifetime.end.p0(i64 384, ptr nonnull %10) #21
  ret void
}